; Function Attrs: alwaysinline norecurse nounwind ssp uwtable
define internal void @"_ZN6open3d4core15ParallelForCPU_IZZZNS_1t2ioL17PackColorsToFloatERKNS0_6TensorEENK3$_0clEvENKUlvE5_clEvEUllE_EEvRKNS0_6DeviceElRKT_.omp_outlined"(ptr noalias noundef readonly captures(none) %0, ptr noalias readnone captures(none) %1, ptr noundef nonnull readonly align 8 captures(none) dereferenceable(8) %2, ptr noundef nonnull readonly align 8 captures(none) dereferenceable(16) %3) #29 personality ptr @__gxx_personality_v0 {
  %5 = alloca [4 x i8], align 4
  %6 = alloca i64, align 8
  %7 = alloca i64, align 8
  %8 = alloca i64, align 8
  %9 = alloca i32, align 4
  %10 = load i64, ptr %2, align 8, !tbaa !51
  %11 = icmp sgt i64 %10, 0
  br i1 %11, label %12, label %33

12:                                               ; preds = %4
  %13 = add nsw i64 %10, -1
  call void @llvm.lifetime.start.p0(i64 8, ptr nonnull %6) #30
  store i64 0, ptr %6, align 8, !tbaa !51
  call void @llvm.lifetime.start.p0(i64 8, ptr nonnull %7) #30
  store i64 %13, ptr %7, align 8, !tbaa !51
  call void @llvm.lifetime.start.p0(i64 8, ptr nonnull %8) #30
  store i64 1, ptr %8, align 8, !tbaa !51
  call void @llvm.lifetime.start.p0(i64 4, ptr nonnull %9) #30
  store i32 0, ptr %9, align 4, !tbaa !28
  %14 = load i32, ptr %0, align 4, !tbaa !28
  call void @__kmpc_for_static_init_8(ptr nonnull @1, i32 %14, i32 34, ptr nonnull %9, ptr nonnull %6, ptr nonnull %7, ptr nonnull %8, i64 1, i64 1)
  %15 = load i64, ptr %7, align 8, !tbaa !51
  %16 = call i64 @llvm.smin.i64(i64 %15, i64 %13)
  store i64 %16, ptr %7, align 8, !tbaa !51
  %17 = load i64, ptr %6, align 8, !tbaa !51
  %.not14 = icmp sgt i64 %17, %16
  br i1 %.not14, label %._crit_edge, label %.lr.ph

.lr.ph:                                           ; preds = %12
  %.val = load ptr, ptr %3, align 8, !tbaa !1031
  %18 = getelementptr inbounds nuw i8, ptr %3, i64 8
  %.val.val = load ptr, ptr %.val, align 8, !tbaa !148
  %19 = getelementptr inbounds nuw i8, ptr %5, i64 3
  br label %20

20:                                               ; preds = %.lr.ph, %28
  %.015 = phi i64 [ %17, %.lr.ph ], [ %32, %28 ]
  %.val13 = load ptr, ptr %18, align 8
  call void @llvm.lifetime.start.p0(i64 4, ptr nonnull %5) #30
  store i32 0, ptr %5, align 4
  %21 = mul nsw i64 %.015, 3
  %22 = getelementptr inbounds i8, ptr %.val.val, i64 %21
  br label %23

23:                                               ; preds = %23, %20
  %indvars.iv.i.i = phi i64 [ 0, %20 ], [ %indvars.iv.next.i.i, %23 ]
  %24 = sub nuw nsw i64 2, %indvars.iv.i.i
  %25 = getelementptr inbounds nuw i8, ptr %22, i64 %24
  %26 = load i8, ptr %25, align 1, !tbaa !43
  %27 = getelementptr inbounds nuw i8, ptr %5, i64 %indvars.iv.i.i
  store i8 %26, ptr %27, align 1, !tbaa !43
  %indvars.iv.next.i.i = add nuw nsw i64 %indvars.iv.i.i, 1
  %exitcond.not.i.i = icmp eq i64 %indvars.iv.next.i.i, 3
  br i1 %exitcond.not.i.i, label %28, label %23, !llvm.loop !1033

28:                                               ; preds = %23
  store i8 0, ptr %19, align 1, !tbaa !43
  %29 = load float, ptr %5, align 4
  %30 = load ptr, ptr %.val13, align 8, !tbaa !917
  %31 = getelementptr inbounds float, ptr %30, i64 %.015
  store float %29, ptr %31, align 4, !tbaa !200
  call void @llvm.lifetime.end.p0(i64 4, ptr nonnull %5) #30
  %32 = add i64 %.015, 1
  %exitcond.not = icmp eq i64 %.015, %16
  br i1 %exitcond.not, label %._crit_edge, label %20

._crit_edge:                                      ; preds = %28, %12
  call void @__kmpc_for_static_fini(ptr nonnull @1, i32 %14)
  call void @llvm.lifetime.end.p0(i64 4, ptr nonnull %9) #30
  call void @llvm.lifetime.end.p0(i64 8, ptr nonnull %8) #30
  call void @llvm.lifetime.end.p0(i64 8, ptr nonnull %7) #30
  call void @llvm.lifetime.end.p0(i64 8, ptr nonnull %6) #30
  br label %33

33:                                               ; preds = %._crit_edge, %4
  ret void
}